Certificate:
    Data:
        Version: 3 (0x2)
        Serial Number: 4096 (0x1000)
    Signature Algorithm: sha256WithRSAEncryption
        Issuer: C=US, ST=Texas, O=MirrorNG, CN=MIRRORNG CA
        Validity
            Not Before: Oct 29 16:47:01 2020 GMT
            Not After : Oct  5 16:47:01 2120 GMT
        Subject: C=US, ST=Texas, O=MirrorNG, CN=MIRRORNG INTERMEDIARY CA
        Subject Public Key Info:
            Public Key Algorithm: rsaEncryption
                Public-Key: (2048 bit)
                Modulus:
                    00:dd:27:16:02:1e:6d:7c:eb:a4:dc:0d:10:a6:99:
                    57:6b:bc:ba:f1:77:b1:10:a2:b1:63:06:c6:96:d0:
                    7d:f6:d1:2e:02:d1:8f:73:10:63:ea:56:54:b5:66:
                    e4:4b:2d:91:42:64:1e:2a:6f:16:f8:2a:a5:be:e6:
                    46:b7:90:01:ff:59:87:fd:2f:44:3b:11:63:ec:5e:
                    23:a5:b6:b2:61:18:d6:14:cf:d5:2f:a1:ca:8c:97:
                    55:9b:e0:1e:03:6e:fb:1a:b6:15:47:3e:ac:a3:7d:
                    73:20:a5:ea:8a:58:f1:f9:d0:98:ff:9c:72:04:a2:
                    ac:00:cc:5c:20:ce:fb:1a:25:f5:28:2e:b0:c3:21:
                    4e:e7:6d:7a:ed:cb:ce:b5:f0:23:d9:8d:64:06:89:
                    5d:cd:8f:4c:f5:a3:6e:d7:ed:55:e0:0e:d7:ce:cb:
                    eb:11:f0:d5:44:2f:e1:54:36:ce:81:6b:cd:92:fe:
                    45:51:5b:15:da:fb:f6:0a:6d:60:f0:c2:99:63:99:
                    2d:c7:0f:17:22:c5:e9:4c:ed:d2:fc:90:84:b5:c9:
                    51:60:b7:9f:98:9e:44:5a:c7:43:73:3b:75:14:a4:
                    4d:35:26:97:0d:72:65:6b:ed:ba:91:c5:d3:a2:0b:
                    0e:5e:c8:1a:1e:55:63:87:b5:33:b5:8d:7d:6c:2a:
                    cc:ed
                Exponent: 65537 (0x10001)
        X509v3 extensions:
            X509v3 Subject Key Identifier: 
                57:34:10:AD:C8:6E:8E:8A:B1:42:F4:7C:F1:BD:AA:4E:40:D2:1A:2E
            X509v3 Authority Key Identifier: 
                keyid:51:52:EF:68:D8:45:11:4A:05:8C:A8:0C:50:02:36:6B:73:91:6F:1D

            X509v3 Basic Constraints: critical
                CA:TRUE, pathlen:0
            X509v3 Key Usage: critical
                Digital Signature, Certificate Sign, CRL Sign
    Signature Algorithm: sha256WithRSAEncryption
         9d:c2:ff:ac:c4:16:21:65:c9:d7:a7:93:9b:e5:39:17:ff:02:
         24:8c:6e:8d:3f:0a:33:61:4b:7c:77:20:5b:31:d0:91:3f:39:
         7a:37:96:5e:f1:68:d3:66:7d:2a:1b:d8:e9:51:8c:d5:30:eb:
         9b:d2:5b:eb:de:89:f8:65:f3:60:87:a0:67:4f:64:eb:31:f3:
         02:8b:76:ed:92:9e:8f:64:03:10:47:7b:1b:e5:18:5f:49:51:
         b1:f5:d6:47:aa:81:16:2a:35:d9:16:1d:51:14:0a:93:4e:1d:
         6f:23:60:29:26:52:af:2f:fd:9d:7b:06:48:2e:6e:d0:17:ea:
         5f:8e:7d:79:2f:48:4f:76:55:8d:48:dc:e7:04:d6:0d:6d:3d:
         72:9a:e0:a7:7f:6d:3d:98:09:b1:87:13:54:09:3e:cf:75:c6:
         60:40:a4:0c:f7:2c:45:ad:cb:ad:7c:b3:c6:c2:63:7a:2c:29:
         00:83:1f:2b:94:0e:fb:c1:ba:4a:48:e7:10:ff:69:9e:e5:86:
         7b:9d:63:05:e0:8c:54:2f:ea:b3:47:bb:3a:82:60:83:56:91:
         c4:5b:b0:0a:05:b1:cf:1a:88:85:31:0b:9b:1b:d3:53:32:68:
         71:1a:35:cd:18:74:ed:8a:e7:c3:d2:fc:c1:96:cc:b1:ee:dd:
         16:1c:7e:d6
-----BEGIN CERTIFICATE-----
MIIDfTCCAmWgAwIBAgICEAAwDQYJKoZIhvcNAQELBQAwRjELMAkGA1UEBhMCVVMx
DjAMBgNVBAgMBVRleGFzMREwDwYDVQQKDAhNaXJyb3JORzEUMBIGA1UEAwwLTUlS
Uk9STkcgQ0EwIBcNMjAxMDI5MTY0NzAxWhgPMjEyMDEwMDUxNjQ3MDFaMFMxCzAJ
BgNVBAYTAlVTMQ4wDAYDVQQIDAVUZXhhczERMA8GA1UECgwITWlycm9yTkcxITAf
BgNVBAMMGE1JUlJPUk5HIElOVEVSTUVESUFSWSBDQTCCASIwDQYJKoZIhvcNAQEB
BQADggEPADCCAQoCggEBAN0nFgIebXzrpNwNEKaZV2u8uvF3sRCisWMGxpbQffbR
LgLRj3MQY+pWVLVm5EstkUJkHipvFvgqpb7mRreQAf9Zh/0vRDsRY+xeI6W2smEY
1hTP1S+hyoyXVZvgHgNu+xq2FUc+rKN9cyCl6opY8fnQmP+ccgSirADMXCDO+xol
9SgusMMhTudteu3LzrXwI9mNZAaJXc2PTPWjbtftVeAO187L6xHw1UQv4VQ2zoFr
zZL+RVFbFdr79gptYPDCmWOZLccPFyLF6Uzt0vyQhLXJUWC3n5ieRFrHQ3M7dRSk
TTUmlw1yZWvtupHF06ILDl7IGh5VY4e1M7WNfWwqzO0CAwEAAaNmMGQwHQYDVR0O
BBYEFFc0EK3Ibo6KsUL0fPG9qk5A0houMB8GA1UdIwQYMBaAFFFS72jYRRFKBYyo
DFACNmtzkW8dMBIGA1UdEwEB/wQIMAYBAf8CAQAwDgYDVR0PAQH/BAQDAgGGMA0G
CSqGSIb3DQEBCwUAA4IBAQCdwv+sxBYhZcnXp5Ob5TkX/wIkjG6NPwozYUt8dyBb
MdCRPzl6N5Ze8WjTZn0qG9jpUYzVMOub0lvr3on4ZfNgh6BnT2TrMfMCi3btkp6P
ZAMQR3sb5RhfSVGx9dZHqoEWKjXZFh1RFAqTTh1vI2ApJlKvL/2dewZILm7QF+pf
jn15L0hPdlWNSNznBNYNbT1ymuCnf209mAmxhxNUCT7PdcZgQKQM9yxFrcutfLPG
wmN6LCkAgx8rlA77wbpKSOcQ/2me5YZ7nWMF4IxUL+qzR7s6gmCDVpHEW7AKBbHP
GoiFMQubG9NTMmhxGjXNGHTtiufD0vzBlsyx7t0WHH7W
-----END CERTIFICATE-----
