Certificate:
    Data:
        Version: 3 (0x2)
        Serial Number: 4096 (0x1000)
    Signature Algorithm: sha256WithRSAEncryption
        Issuer: C=US, ST=Texas, O=Mirage, CN=MIRRORNG CA
        Validity
            Not Before: Feb 19 13:58:49 2021 GMT
            Not After : Jan 26 13:58:49 2121 GMT
        Subject: C=US, ST=Texas, O=Mirage, CN=MIRRORNG INTERMEDIARY CA
        Subject Public Key Info:
            Public Key Algorithm: rsaEncryption
                Public-Key: (2048 bit)
                Modulus:
                    00:d6:6b:8a:be:4d:32:c0:26:70:cb:95:76:65:85:
                    09:08:ee:eb:91:36:88:84:e6:a0:db:46:3d:a6:e4:
                    22:7b:36:b1:82:5c:26:ad:af:fc:c3:42:50:70:bb:
                    27:13:c6:97:3c:ab:8b:ae:f8:7e:a4:eb:d0:57:fb:
                    49:bc:e6:54:23:d8:ed:5d:28:02:07:e4:2a:c9:ab:
                    69:84:68:b7:15:8c:5f:ef:65:77:41:1e:8c:d4:7f:
                    57:06:49:b4:e0:f2:35:d0:b3:d9:c3:9f:93:e1:c0:
                    ec:bf:0b:00:e4:de:7f:9c:98:45:51:90:6c:40:6a:
                    cd:f7:ba:33:62:74:98:12:53:27:3b:62:63:f3:f6:
                    34:1c:62:f3:dd:7a:41:18:54:dc:d8:04:e4:68:1c:
                    3e:95:bd:68:a4:d9:f4:92:88:da:81:92:71:c6:0e:
                    fb:9f:f4:8e:0a:27:de:df:02:1f:d5:1c:4e:12:40:
                    1c:63:a1:94:ea:0c:0b:ff:6d:e6:00:f3:af:7f:80:
                    41:4b:b9:4e:fe:4f:3c:a2:ef:78:6b:e8:7c:16:94:
                    29:59:72:e8:ee:a7:43:8d:73:90:89:2f:a6:af:94:
                    f7:07:29:21:9b:d9:44:2c:18:2a:60:b4:a3:1b:56:
                    64:3f:66:c5:23:a5:b6:51:d2:bb:dd:e0:65:e2:c2:
                    2b:1d
                Exponent: 65537 (0x10001)
        X509v3 extensions:
            X509v3 Subject Key Identifier: 
                35:74:71:F6:FB:D4:21:A0:06:75:56:CA:0D:CA:B7:1B:6D:BF:F7:FB
            X509v3 Authority Key Identifier: 
                keyid:C6:01:09:81:34:7E:45:4B:AD:B4:B6:D7:3B:6D:0E:74:62:40:81:AB

            X509v3 Basic Constraints: critical
                CA:TRUE, pathlen:0
            X509v3 Key Usage: critical
                Digital Signature, Certificate Sign, CRL Sign
    Signature Algorithm: sha256WithRSAEncryption
         0b:35:53:31:83:19:d1:c3:7f:49:9b:fd:72:4b:b1:4a:49:91:
         ed:68:08:35:4c:04:cd:42:1f:d7:03:24:8a:dc:0e:25:bc:af:
         ae:e9:49:a0:7f:2b:cc:6f:ac:22:b0:6e:d5:80:61:52:20:93:
         ea:e9:fc:a8:9b:7b:ac:00:75:48:7d:39:e7:29:63:5e:24:1b:
         71:03:32:88:55:57:e4:f9:00:90:0e:b9:d0:bf:60:97:0c:7e:
         b5:05:ca:83:c6:6f:be:93:3d:99:85:9c:21:7b:5a:0c:12:b4:
         2b:9b:e7:f0:da:cb:41:fa:2f:31:4d:94:43:64:c5:3a:0b:b1:
         51:8d:eb:b6:9a:87:de:f8:9b:5b:87:f5:02:b9:dc:2f:8b:20:
         d2:28:7c:cb:ca:0b:7c:8c:d7:4d:94:37:63:d8:8e:64:fa:c4:
         3c:c2:ae:06:07:8d:07:6a:f4:38:f5:36:92:f5:b1:f2:a5:5a:
         77:11:0f:22:4c:46:56:fe:7f:43:9b:e9:16:ec:5c:c9:dc:6a:
         f4:33:43:35:8f:ce:00:ff:f6:ef:af:a9:3a:b3:32:e9:c9:f1:
         cc:30:23:86:fd:24:0a:41:00:9f:99:ae:da:30:73:e2:e2:0c:
         17:e7:af:95:9c:64:36:57:22:d9:a2:ae:b2:16:7c:82:ab:f2:
         30:d5:27:fc
-----BEGIN CERTIFICATE-----
MIIDeTCCAmGgAwIBAgICEAAwDQYJKoZIhvcNAQELBQAwRDELMAkGA1UEBhMCVVMx
DjAMBgNVBAgMBVRleGFzMQ8wDQYDVQQKDAZNaXJhZ2UxFDASBgNVBAMMC01JUlJP
Uk5HIENBMCAXDTIxMDIxOTEzNTg0OVoYDzIxMjEwMTI2MTM1ODQ5WjBRMQswCQYD
VQQGEwJVUzEOMAwGA1UECAwFVGV4YXMxDzANBgNVBAoMBk1pcmFnZTEhMB8GA1UE
AwwYTUlSUk9STkcgSU5URVJNRURJQVJZIENBMIIBIjANBgkqhkiG9w0BAQEFAAOC
AQ8AMIIBCgKCAQEA1muKvk0ywCZwy5V2ZYUJCO7rkTaIhOag20Y9puQiezaxglwm
ra/8w0JQcLsnE8aXPKuLrvh+pOvQV/tJvOZUI9jtXSgCB+QqyatphGi3FYxf72V3
QR6M1H9XBkm04PI10LPZw5+T4cDsvwsA5N5/nJhFUZBsQGrN97ozYnSYElMnO2Jj
8/Y0HGLz3XpBGFTc2ATkaBw+lb1opNn0kojagZJxxg77n/SOCife3wIf1RxOEkAc
Y6GU6gwL/23mAPOvf4BBS7lO/k88ou94a+h8FpQpWXLo7qdDjXOQiS+mr5T3Bykh
m9lELBgqYLSjG1ZkP2bFI6W2UdK73eBl4sIrHQIDAQABo2YwZDAdBgNVHQ4EFgQU
NXRx9vvUIaAGdVbKDcq3G22/9/swHwYDVR0jBBgwFoAUxgEJgTR+RUuttLbXO20O
dGJAgaswEgYDVR0TAQH/BAgwBgEB/wIBADAOBgNVHQ8BAf8EBAMCAYYwDQYJKoZI
hvcNAQELBQADggEBAAs1UzGDGdHDf0mb/XJLsUpJke1oCDVMBM1CH9cDJIrcDiW8
r67pSaB/K8xvrCKwbtWAYVIgk+rp/Kibe6wAdUh9OecpY14kG3EDMohVV+T5AJAO
udC/YJcMfrUFyoPGb76TPZmFnCF7WgwStCub5/Day0H6LzFNlENkxToLsVGN67aa
h974m1uH9QK53C+LINIofMvKC3yM102UN2PYjmT6xDzCrgYHjQdq9Dj1NpL1sfKl
WncRDyJMRlb+f0Ob6RbsXMncavQzQzWPzgD/9u+vqTqzMunJ8cwwI4b9JApBAJ+Z
rtowc+LiDBfnr5WcZDZXItmirrIWfIKr8jDVJ/w=
-----END CERTIFICATE-----
-----BEGIN CERTIFICATE-----
MIIDbjCCAlagAwIBAgIJAIB+IGHuQW3jMA0GCSqGSIb3DQEBCwUAMEQxCzAJBgNV
BAYTAlVTMQ4wDAYDVQQIDAVUZXhhczEPMA0GA1UECgwGTWlyYWdlMRQwEgYDVQQD
DAtNSVJST1JORyBDQTAeFw0yMTAyMTkxMzU4NDlaFw0yMTAzMjExMzU4NDlaMEQx
CzAJBgNVBAYTAlVTMQ4wDAYDVQQIDAVUZXhhczEPMA0GA1UECgwGTWlyYWdlMRQw
EgYDVQQDDAtNSVJST1JORyBDQTCCASIwDQYJKoZIhvcNAQEBBQADggEPADCCAQoC
ggEBAL0LVstbLEuKgTjsfdT4IFUW8xyyzTJGgHqdl3IX1bScdArWHLUwpQDLe2Jv
2TKzmEeLkMQcgHZDBmuYXTXCCr19W7/IxpSVtuyWPTXPasM6EdjFcL3udvWFtjky
D1KtXFg0LW/qcvkBxnsvZ75tBXQPOyzXydMaX5uBHhmcNMoNCQAl2AGzTJZv5vk4
J+hWnJGFiFM+ezumvWr36THC5AUQWBvJppmqp9zXuR2+00S4S/O40hZY9MGHPBy/
3GrjFOj8aaBROUf8CZTQLw3XubRaDoAr8+EYw38Wx/YanvonLlMxbX38yiBIMFiq
irZm3SNg518GnaYMaBxAtXBSovMCAwEAAaNjMGEwHQYDVR0OBBYEFMYBCYE0fkVL
rbS21zttDnRiQIGrMB8GA1UdIwQYMBaAFMYBCYE0fkVLrbS21zttDnRiQIGrMA8G
A1UdEwEB/wQFMAMBAf8wDgYDVR0PAQH/BAQDAgGGMA0GCSqGSIb3DQEBCwUAA4IB
AQCo5Noc7Or655FFqZEcvlGMmiIQmweKCdUtYrp16d2L68pvw/4CI7LKWMy6Pt03
Xp4qamEO/vDe802ZX4MPHhVXBF+z7IkD9NxmCTje2HpKNslOpWmvcAGA7L1/c9iU
dTAbKeEYZMYUBmjXuyxuEgSaF9h0UR5qIrv/Q0zbuxqby9rc9/M1u1+DeIMetfr8
fV6Qwmyvv1f8llBVRZFlfWsKjqzkiMJL51+p5vTu6/9FRfs++2mpCNUbnvlwdX3S
HxI8CG7lNe0uWnNWnPhvqLXXw9CfD1tTVF07pmhpjlkluLDUUxgj098lUtxRAra6
wOZJVtdT7zOf2TH3IsNIp3o6
-----END CERTIFICATE-----
