-----BEGIN CERTIFICATE-----
MIIEIzCCAwugAwIBAgICEAEwDQYJKoZIhvcNAQELBQAwUzELMAkGA1UEBhMCVVMx
DjAMBgNVBAgMBVRleGFzMREwDwYDVQQKDAhNaXJyb3JORzEhMB8GA1UEAwwYTUlS
Uk9STkcgSU5URVJNRURJQVJZIENBMCAXDTIwMTAyOTE2NTkxM1oYDzIxMjAxMDA1
MTY1OTEzWjBEMQswCQYDVQQGEwJVUzEOMAwGA1UECAwFVGV4YXMxETAPBgNVBAoM
CE1pcnJvck5HMRIwEAYDVQQDDAlsb2NhbGhvc3QwggEiMA0GCSqGSIb3DQEBAQUA
A4IBDwAwggEKAoIBAQCt1vhKC8yauNz7Y/xYQiD/fxXkxh3AW6fyh2KSbwdcxO3e
kauHqT6jxBxxakULdL0lhN0AoC11tGSyimhNv2BxeL1hyPD2iguX/l8m/wyqg2K0
iBhe66+g7VIyjiW2VHr6H+nHde60+4e4Ax39Wjm43hfqjDKabg+0SxlW68a88y5u
jjdLiKJjjF04at8WHesXL3IPRIr9rG/lvmuX5bc1IJucrMVURY9p/Ds/GwW6u1tj
He0/Ej4Rd5lExk9uYhipM0PPPpTqlf4DUkYd0nHEAV2c186Tr9j19uy1Q+9h5Rwh
8J/8mW5DEv8mY73lMCCpxGK/Cs2JE+PyRMeeo5mnAgMBAAGjggEMMIIBCDAJBgNV
HRMEAjAAMBEGCWCGSAGG+EIBAQQEAwIGQDAzBglghkgBhvhCAQ0EJhYkT3BlblNT
TCBHZW5lcmF0ZWQgU2VydmVyIENlcnRpZmljYXRlMB0GA1UdDgQWBBQ+sz/3vgh2
HAuGF833dMoGloDZKjBvBgNVHSMEaDBmgBTUD7fGRlzxWjUniA7p2G1hbP/jxKFK
pEgwRjELMAkGA1UEBhMCVVMxDjAMBgNVBAgMBVRleGFzMREwDwYDVQQKDAhNaXJy
b3JORzEUMBIGA1UEAwwLTUlSUk9STkcgQ0GCAhAAMA4GA1UdDwEB/wQEAwIFoDAT
BgNVHSUEDDAKBggrBgEFBQcDATANBgkqhkiG9w0BAQsFAAOCAQEAbHk/rTbm8wA5
RRXDcVIa2572HOyc7OzXhEmHbvQwk/fCRqB12YYipWaI78aDjDEeoTkueyG9h8O5
SmvIoQ9b3Sy18heGopWS5EXQ1ZjnbhaNWWUkWejrTY7+hyTKO4XghgCTUUzV+o2Q
30hTwrKeOg+0rE8x73r2w0Metg/zvGNd10WTtOIXMf1fO1xJFf/aXv2LTdY1V6OF
kIDz8j+Aqj7vZTQERYRyEuXsSNEmmPgRc5QcyCbD+eNsbATjQ6imebjffR9euEUB
onZIt+vrUpb06w6zlAsV5x4eFTrdpGEikmmMkFs3rd/ltcBCZV2rYZLzpO5/+/Vr
09f7tunssQ==
-----END CERTIFICATE-----
Certificate:
    Data:
        Version: 3 (0x2)
        Serial Number: 4096 (0x1000)
    Signature Algorithm: sha256WithRSAEncryption
        Issuer: C=US, ST=Texas, O=MirrorNG, CN=MIRRORNG CA
        Validity
            Not Before: Oct 29 16:59:13 2020 GMT
            Not After : Oct  5 16:59:13 2120 GMT
        Subject: C=US, ST=Texas, O=MirrorNG, CN=MIRRORNG INTERMEDIARY CA
        Subject Public Key Info:
            Public Key Algorithm: rsaEncryption
                Public-Key: (2048 bit)
                Modulus:
                    00:b8:87:63:e8:78:2c:b2:8c:55:7b:4b:47:bb:8d:
                    d3:c7:ec:4b:03:89:b6:49:f4:ff:00:fc:21:9a:95:
                    08:0c:59:f5:31:50:de:a4:99:20:9a:e7:a7:2d:09:
                    28:6e:e6:6b:17:22:0a:84:90:8a:d9:54:3f:03:8e:
                    66:05:f8:ac:d6:8e:4d:f7:09:0b:b2:1c:59:02:41:
                    a8:5c:f9:07:85:f8:31:f6:de:ed:87:a5:18:f8:8e:
                    f6:f6:71:fb:39:63:02:e9:c6:31:d9:cd:82:04:6f:
                    f0:dd:cd:01:08:02:06:be:c7:1a:45:1c:ec:f9:1f:
                    0e:43:3d:6f:0b:f5:60:95:99:43:dc:5f:91:fc:78:
                    6c:7f:9d:64:a0:21:05:ed:3a:b0:fe:08:ff:d3:29:
                    c5:ec:ae:6c:ff:7c:87:ba:df:22:85:b1:87:ee:40:
                    32:4b:c7:e1:30:b3:45:74:5e:49:16:d4:dc:ad:2d:
                    56:a7:b7:5e:c8:28:a5:f5:18:a6:17:a0:68:1a:37:
                    93:1b:6d:3d:c7:e4:55:ad:f9:78:26:13:83:a3:76:
                    db:92:99:a6:63:65:c6:4d:3e:f6:68:e2:e5:bc:25:
                    7d:f8:66:54:e7:76:6b:f1:f1:b7:4c:a4:1b:76:7e:
                    69:06:1d:93:35:29:ad:42:2e:22:bc:90:86:ad:22:
                    64:33
                Exponent: 65537 (0x10001)
        X509v3 extensions:
            X509v3 Subject Key Identifier: 
                D4:0F:B7:C6:46:5C:F1:5A:35:27:88:0E:E9:D8:6D:61:6C:FF:E3:C4
            X509v3 Authority Key Identifier: 
                keyid:5A:EC:2B:CA:DF:2E:0E:32:7C:75:51:FD:32:C7:D1:1E:95:2F:70:32

            X509v3 Basic Constraints: critical
                CA:TRUE, pathlen:0
            X509v3 Key Usage: critical
                Digital Signature, Certificate Sign, CRL Sign
    Signature Algorithm: sha256WithRSAEncryption
         07:af:0c:ba:f0:35:55:86:0c:f4:f1:bf:d5:b1:7f:e7:a3:e7:
         a4:a8:bd:e0:b6:ed:c6:01:ab:c4:82:6a:4d:6b:c3:30:98:22:
         4b:b1:79:54:d2:c9:6c:c1:d3:af:ee:d0:d1:d1:4a:99:86:e0:
         a5:73:7a:e2:f8:89:c6:6f:f9:35:7c:22:aa:3a:2d:83:45:5b:
         3a:f4:d2:13:57:7a:71:2a:5a:09:d6:df:a6:f6:91:71:8b:41:
         e6:33:05:1a:4c:a0:e4:c4:cc:c4:d8:2b:9d:24:76:09:1c:6d:
         59:35:3b:65:f2:72:8a:15:f9:8f:55:da:47:66:48:e6:e5:7b:
         5d:44:47:d3:3a:e8:63:3e:3f:76:42:89:ad:aa:d2:07:07:ee:
         2a:c5:c4:3d:0c:1a:c3:7e:64:18:c9:58:92:a4:7b:16:99:88:
         b1:98:93:8b:a0:dc:a8:10:f2:f9:23:2f:08:35:e5:bc:ba:6e:
         57:ef:76:ba:02:5a:19:fd:e8:d7:c3:ca:d4:17:8f:83:e6:da:
         9e:a7:a6:48:93:c8:0b:ac:6c:08:a4:9a:40:a6:07:35:1d:a2:
         7d:d8:b0:31:25:3e:f0:49:b5:54:63:01:ef:9c:b2:69:47:11:
         98:07:08:fd:af:fc:1e:c8:4f:c4:fa:dd:80:3e:18:18:c2:21:
         a5:66:41:e4
-----BEGIN CERTIFICATE-----
MIIDfTCCAmWgAwIBAgICEAAwDQYJKoZIhvcNAQELBQAwRjELMAkGA1UEBhMCVVMx
DjAMBgNVBAgMBVRleGFzMREwDwYDVQQKDAhNaXJyb3JORzEUMBIGA1UEAwwLTUlS
Uk9STkcgQ0EwIBcNMjAxMDI5MTY1OTEzWhgPMjEyMDEwMDUxNjU5MTNaMFMxCzAJ
BgNVBAYTAlVTMQ4wDAYDVQQIDAVUZXhhczERMA8GA1UECgwITWlycm9yTkcxITAf
BgNVBAMMGE1JUlJPUk5HIElOVEVSTUVESUFSWSBDQTCCASIwDQYJKoZIhvcNAQEB
BQADggEPADCCAQoCggEBALiHY+h4LLKMVXtLR7uN08fsSwOJtkn0/wD8IZqVCAxZ
9TFQ3qSZIJrnpy0JKG7maxciCoSQitlUPwOOZgX4rNaOTfcJC7IcWQJBqFz5B4X4
Mfbe7YelGPiO9vZx+zljAunGMdnNggRv8N3NAQgCBr7HGkUc7PkfDkM9bwv1YJWZ
Q9xfkfx4bH+dZKAhBe06sP4I/9MpxeyubP98h7rfIoWxh+5AMkvH4TCzRXReSRbU
3K0tVqe3XsgopfUYphegaBo3kxttPcfkVa35eCYTg6N225KZpmNlxk0+9mji5bwl
ffhmVOd2a/Hxt0ykG3Z+aQYdkzUprUIuIryQhq0iZDMCAwEAAaNmMGQwHQYDVR0O
BBYEFNQPt8ZGXPFaNSeIDunYbWFs/+PEMB8GA1UdIwQYMBaAFFrsK8rfLg4yfHVR
/TLH0R6VL3AyMBIGA1UdEwEB/wQIMAYBAf8CAQAwDgYDVR0PAQH/BAQDAgGGMA0G
CSqGSIb3DQEBCwUAA4IBAQAHrwy68DVVhgz08b/VsX/no+ekqL3gtu3GAavEgmpN
a8MwmCJLsXlU0slswdOv7tDR0UqZhuClc3ri+InGb/k1fCKqOi2DRVs69NITV3px
KloJ1t+m9pFxi0HmMwUaTKDkxMzE2CudJHYJHG1ZNTtl8nKKFfmPVdpHZkjm5Xtd
REfTOuhjPj92QomtqtIHB+4qxcQ9DBrDfmQYyViSpHsWmYixmJOLoNyoEPL5Iy8I
NeW8um5X73a6AloZ/ejXw8rUF4+D5tqep6ZIk8gLrGwIpJpApgc1HaJ92LAxJT7w
SbVUYwHvnLJpRxGYBwj9r/weyE/E+t2APhgYwiGlZkHk
-----END CERTIFICATE-----
-----BEGIN CERTIFICATE-----
MIIDcjCCAlqgAwIBAgIJAKdDE9kf+P/lMA0GCSqGSIb3DQEBCwUAMEYxCzAJBgNV
BAYTAlVTMQ4wDAYDVQQIDAVUZXhhczERMA8GA1UECgwITWlycm9yTkcxFDASBgNV
BAMMC01JUlJPUk5HIENBMB4XDTIwMTAyOTE2NTkxM1oXDTIwMTEyODE2NTkxM1ow
RjELMAkGA1UEBhMCVVMxDjAMBgNVBAgMBVRleGFzMREwDwYDVQQKDAhNaXJyb3JO
RzEUMBIGA1UEAwwLTUlSUk9STkcgQ0EwggEiMA0GCSqGSIb3DQEBAQUAA4IBDwAw
ggEKAoIBAQC3cMKUb4mBdyExSzBy6liBnTv/W7uJMDm+3QMoIORs/y1LxlsY6Eo4
BjiIg/Wq2sgKCgZhiMYKRk71EcW7dIltjMjc51JlfrW6aXXqficCNXc2TPBVvsTv
ldNGkeoC7h0QJdsrYVRcBiz0MSq9NxQj20VPhNW8nueHxVipdYKEJusyplSwJaO0
Scu9txmxTKDlbFhrwivgn1k4LvUgYfz5hv34nZCY0VsZiROm0JpjZLJiNNTb1sl4
KFeeJvYREPvZ817R3Xjm6OXyeJkiyZAa8DgLmVE7pYicOngHdqYC2NA5WYf2iSdg
q9FFzSaCnN42cvLeAIR78xjMMsM7t4IjAgMBAAGjYzBhMB0GA1UdDgQWBBRa7CvK
3y4OMnx1Uf0yx9EelS9wMjAfBgNVHSMEGDAWgBRa7CvK3y4OMnx1Uf0yx9EelS9w
MjAPBgNVHRMBAf8EBTADAQH/MA4GA1UdDwEB/wQEAwIBhjANBgkqhkiG9w0BAQsF
AAOCAQEAdstSIHVSan+chMnhlAVACBMmtOJOpz2LbKNgINKjispeAigfhrKq1JzJ
wppzDGsOcrQbp9TnIAR5ya7Mk339xJH203UCDSKmftkTFCVXEqHeHc4/POX0MzKH
2ZbLPBZovWdWBUEok2hqcrUfdSWE7gPpyQ+ZSqWhmaGf4ETUak3tWQtVWV7pzBG5
WtV5b4DCAcFoCrzPUfoBsvavzusX2BoB5VN8q7VBTwmlRx75qMUZB8TmORoaKWed
lnWT1Fsy7pdn0eStiacQEtFGCczhSgrdHGP6oNJKYP19tUsMZ5e+SLsbl//81RMP
axyzSUACjyX40YQ+VxNmOeknnIMpcA==
-----END CERTIFICATE-----
