-----BEGIN CERTIFICATE-----
MIIDXDCCAkQCCQDk4fcs+t1q7jANBgkqhkiG9w0BAQsFADBTMQswCQYDVQQGEwJV
UzEOMAwGA1UECAwFVGV4YXMxETAPBgNVBAoMCE1pcnJvck5HMSEwHwYDVQQDDBhN
SVJST1JORyBJTlRFUk1FRElBUlkgQ0EwIBcNMjAxMDI5MTYzOTA1WhgPMjEyMDEw
MDUxNjM5MDVaMIGKMQswCQYDVQQGEwJCUjESMBAGA1UECAwJU0FPIFBBVUxPMRIw
EAYDVQQHDAlTQU8gUEFVTE8xETAPBgNVBAoMCE1pcnJvck5HMRIwEAYDVQQDDAls
b2NhbGhvc3QxLDAqBgNVHREMI0ROUy4xPWF4d2F5LmxhYixETlMuMj15b3VyLWFs
dC1uYW1lMIIBIjANBgkqhkiG9w0BAQEFAAOCAQ8AMIIBCgKCAQEAwr/CADUESo07
lBmP9RgcjwnUrHY8OOXLMmiBhtHHIAMILhPTJxz/RfhxCAChYth1/OZqOf86Eocd
3dqUwX6FFqi83ZD/E5qPzVWU9QweamRhmV0+kpZEJnoVFK+uqs+wPnuKXnlqRydJ
Vx3AbHZ3u+AaggDrO2MwLm/xlW2/tNI0UjsV9aFmqIudFhmBFlBaCAl9AlReKfDt
TjSOgUkuPOdp90oNIo89+W4ShMJOkvipJXR+KbAmr9QO/dePbYEKi36JxavMkAgb
Dfw8WIgo8qv/aE+VZg+rHxfu254Sc5AU9V5kAm2YjSWITmKtaZ0ujCxfFQB5/2Hj
7CZy2c5eOQIDAQABMA0GCSqGSIb3DQEBCwUAA4IBAQCoQahejrFnmEkuJm5lKCEd
JNJFy3MJUBSQQVb0TXtefKkai4hqp8TriT2VZyYS91+L95WKjSzZh3siTe0tFPTT
n1Y0H2eGsUCdOxvGsw3tFGQwwzcfcD+uP1tOLD37xwEWizW5ypwFUqkEWzgsIiz9
G++kpU7KEgdyM8PxbxZ4z5+M4DxJuBv4EKUK9wEAAq/tHzbSa5LTUi3s0YKGh8pM
3vSPWjlvGUjDIqrRbkv/GwEDmF7NOXsvkQo5mkT9tou11K3NCLFtMQ5ZcHmVrVUR
Xb4i5in/6ciJ4myaUFi8l5zF4tQj+J2a2DMLc83L0oJpNCIhr+o56/0+QAE8tvm6
-----END CERTIFICATE-----
Certificate:
    Data:
        Version: 3 (0x2)
        Serial Number: 4096 (0x1000)
    Signature Algorithm: sha256WithRSAEncryption
        Issuer: C=US, ST=Texas, O=MirrorNG, CN=MIRRORNG CA
        Validity
            Not Before: Oct 29 16:39:05 2020 GMT
            Not After : Oct  5 16:39:05 2120 GMT
        Subject: C=US, ST=Texas, O=MirrorNG, CN=MIRRORNG INTERMEDIARY CA
        Subject Public Key Info:
            Public Key Algorithm: rsaEncryption
                Public-Key: (2048 bit)
                Modulus:
                    00:c2:58:4a:e6:ee:2b:9a:51:e3:9b:5a:3e:d3:b0:
                    fc:3c:ee:a5:99:81:4f:25:81:85:c3:e4:aa:6a:d2:
                    01:5a:e9:fd:f0:08:cb:bf:bf:db:5c:2d:6a:fa:63:
                    2a:0b:d6:3e:d8:9c:dd:49:7c:35:e1:39:04:88:28:
                    d5:7e:ca:c0:90:db:da:2e:32:da:17:e4:51:92:a6:
                    33:ed:36:f3:56:50:f9:8a:24:ab:6a:c2:bb:e0:1d:
                    63:9a:7d:57:a5:24:9d:e8:6d:d1:8a:50:08:a7:f6:
                    33:aa:57:23:3b:86:ce:76:db:14:98:13:8a:55:ab:
                    74:a1:31:f2:52:ba:ea:10:d7:0b:b9:fd:13:db:b7:
                    ef:41:e2:fa:ad:34:9b:8a:50:b3:f4:20:c5:09:af:
                    5c:db:16:a6:4c:f9:86:c7:8b:5e:04:dd:b0:bd:69:
                    7c:4b:b7:7d:44:a9:4d:1b:76:a9:6d:26:e9:b5:15:
                    fc:ce:76:df:f2:19:00:5f:e6:1f:e2:38:69:21:a7:
                    f0:56:2a:5c:4c:ec:ef:ea:ed:98:b5:74:ee:eb:04:
                    d6:1f:63:e2:c6:22:da:9e:da:28:9c:37:2c:40:0a:
                    d8:7d:ac:8c:22:88:15:7e:71:5c:ab:d3:76:70:d0:
                    ca:5c:01:ad:00:3f:a3:7a:98:35:6f:5b:a0:60:96:
                    53:17
                Exponent: 65537 (0x10001)
        X509v3 extensions:
            X509v3 Subject Key Identifier: 
                E0:8F:B8:78:FA:92:74:F2:99:30:F7:F7:84:6C:88:3F:39:03:2F:BC
            X509v3 Authority Key Identifier: 
                keyid:FC:33:72:F7:B0:17:CE:8D:F6:81:18:50:F3:43:4D:67:14:E4:19:AC

            X509v3 Basic Constraints: critical
                CA:TRUE, pathlen:0
            X509v3 Key Usage: critical
                Digital Signature, Certificate Sign, CRL Sign
    Signature Algorithm: sha256WithRSAEncryption
         66:75:30:52:3b:d3:6b:d2:1d:db:e7:4d:d8:2b:f2:b2:1c:3a:
         3b:0f:89:81:85:e1:7d:98:0e:23:92:15:48:fd:20:1c:79:79:
         14:c7:63:e5:51:57:a0:ab:14:36:50:be:89:73:b6:75:9d:31:
         82:3d:8e:7b:d7:6d:48:4c:b8:41:5d:96:fc:e7:a8:01:7e:83:
         da:ad:bc:65:79:f5:ae:10:e7:73:12:1e:b5:0e:74:9d:15:58:
         4f:15:b3:05:75:b0:23:3a:10:ca:2a:8e:7d:2d:19:97:11:b2:
         f1:35:67:2b:83:af:ef:5d:64:6a:bc:f3:c1:06:3e:16:99:b9:
         56:e6:43:e6:67:a6:78:89:c6:fa:ad:90:dc:f7:c3:c6:45:90:
         a8:5b:e2:4e:3d:97:f9:00:c1:bf:7b:4b:ff:bb:5c:9f:dc:7d:
         25:05:bb:fa:ac:67:67:29:cc:fa:b6:4e:6d:82:1c:91:14:80:
         b7:48:96:07:a2:55:a6:bc:e8:1c:8c:7d:83:62:e9:02:f9:33:
         b5:07:34:f2:f1:1e:4e:a4:2e:ed:57:a8:05:ff:ec:6f:3d:32:
         51:e0:7b:3e:e8:ac:f8:a0:16:3b:32:dd:49:8c:f2:72:c6:79:
         4a:5e:e5:63:67:b2:b8:3c:0d:35:82:be:91:0d:aa:2e:82:2a:
         b3:a2:69:0d
-----BEGIN CERTIFICATE-----
MIIDfTCCAmWgAwIBAgICEAAwDQYJKoZIhvcNAQELBQAwRjELMAkGA1UEBhMCVVMx
DjAMBgNVBAgMBVRleGFzMREwDwYDVQQKDAhNaXJyb3JORzEUMBIGA1UEAwwLTUlS
Uk9STkcgQ0EwIBcNMjAxMDI5MTYzOTA1WhgPMjEyMDEwMDUxNjM5MDVaMFMxCzAJ
BgNVBAYTAlVTMQ4wDAYDVQQIDAVUZXhhczERMA8GA1UECgwITWlycm9yTkcxITAf
BgNVBAMMGE1JUlJPUk5HIElOVEVSTUVESUFSWSBDQTCCASIwDQYJKoZIhvcNAQEB
BQADggEPADCCAQoCggEBAMJYSubuK5pR45taPtOw/DzupZmBTyWBhcPkqmrSAVrp
/fAIy7+/21wtavpjKgvWPtic3Ul8NeE5BIgo1X7KwJDb2i4y2hfkUZKmM+0281ZQ
+Yokq2rCu+AdY5p9V6Ukneht0YpQCKf2M6pXIzuGznbbFJgTilWrdKEx8lK66hDX
C7n9E9u370Hi+q00m4pQs/QgxQmvXNsWpkz5hseLXgTdsL1pfEu3fUSpTRt2qW0m
6bUV/M523/IZAF/mH+I4aSGn8FYqXEzs7+rtmLV07usE1h9j4sYi2p7aKJw3LEAK
2H2sjCKIFX5xXKvTdnDQylwBrQA/o3qYNW9boGCWUxcCAwEAAaNmMGQwHQYDVR0O
BBYEFOCPuHj6knTymTD394RsiD85Ay+8MB8GA1UdIwQYMBaAFPwzcvewF86N9oEY
UPNDTWcU5BmsMBIGA1UdEwEB/wQIMAYBAf8CAQAwDgYDVR0PAQH/BAQDAgGGMA0G
CSqGSIb3DQEBCwUAA4IBAQBmdTBSO9Nr0h3b503YK/KyHDo7D4mBheF9mA4jkhVI
/SAceXkUx2PlUVegqxQ2UL6Jc7Z1nTGCPY57121ITLhBXZb856gBfoParbxlefWu
EOdzEh61DnSdFVhPFbMFdbAjOhDKKo59LRmXEbLxNWcrg6/vXWRqvPPBBj4WmblW
5kPmZ6Z4icb6rZDc98PGRZCoW+JOPZf5AMG/e0v/u1yf3H0lBbv6rGdnKcz6tk5t
ghyRFIC3SJYHolWmvOgcjH2DYukC+TO1BzTy8R5OpC7tV6gF/+xvPTJR4Hs+6Kz4
oBY7Mt1JjPJyxnlKXuVjZ7K4PA01gr6RDaougiqzomkN
-----END CERTIFICATE-----
-----BEGIN CERTIFICATE-----
MIIDcjCCAlqgAwIBAgIJAOxDmwdopKbUMA0GCSqGSIb3DQEBCwUAMEYxCzAJBgNV
BAYTAlVTMQ4wDAYDVQQIDAVUZXhhczERMA8GA1UECgwITWlycm9yTkcxFDASBgNV
BAMMC01JUlJPUk5HIENBMB4XDTIwMTAyOTE2MzkwNFoXDTIwMTEyODE2MzkwNFow
RjELMAkGA1UEBhMCVVMxDjAMBgNVBAgMBVRleGFzMREwDwYDVQQKDAhNaXJyb3JO
RzEUMBIGA1UEAwwLTUlSUk9STkcgQ0EwggEiMA0GCSqGSIb3DQEBAQUAA4IBDwAw
ggEKAoIBAQCtSzLvF6zpogYFX5R8JJYJXdqAcbMp7gKeBAfOcWqdlAS2SUm/yMZJ
56JUK5Q/MQGiijtH2BZyXht7CNDcGM2S5anS2GMu+n6vn/dw4iMnU888wHz31XsQ
mPmeoTvbzMiDAVjKG5OL4UzGpjG6vY3xIHdc/PPccldZIsbtNWFSrIkpJEzgGfbF
edZxl7rviAeYcCP84+WT4MgyfPRQNUXAjqnMicUxg6b5rS6WH9zgdweJ59N1CU++
u7XZpigdKGJJ+aJ/IrigcXYHdEmwUvP+OyrYABwwxYo85TuC6FraSzj5+8NkeGUm
4kgRErqk5PYHdTYIBMA+Ww7I7C+pXLxJAgMBAAGjYzBhMB0GA1UdDgQWBBT8M3L3
sBfOjfaBGFDzQ01nFOQZrDAfBgNVHSMEGDAWgBT8M3L3sBfOjfaBGFDzQ01nFOQZ
rDAPBgNVHRMBAf8EBTADAQH/MA4GA1UdDwEB/wQEAwIBhjANBgkqhkiG9w0BAQsF
AAOCAQEAZtP9yp9ylTdhov8+ZORCUPwYz5oDDILM7IQOCRQeGH/Oh26iMO53D99D
hl4JMjD/wWvTLBMAu1bv48itrdrNF8LRQWNHBhEN+vELyCCXbVZpqCZe5B41iU7B
cliZzUVZSFrRM/3TaJGFmtS7rRulqroxoKXA1MirWzoSA+9qQ5UZV+Ol96K+lztM
o4HlW7mFt6Y7Yw9Xz16VfeDxlw0dppjoq0+S5Eg+FxZH9Jn8Dh5NaCf3mZivRPlQ
hWHNvtuPZo/KJ8Bx/VztE74nm5/uV9faqtrTjpavcsrgJDindTjtcFZWGgmKNhTJ
69FA5mmid42EOd52DprWuIrnXzRIQQ==
-----END CERTIFICATE-----
