Certificate:
    Data:
        Version: 3 (0x2)
        Serial Number:
            4d:8f:44:3e:e3:77:0a:d9:75:60:95:ab:3c:ad:e7:bb:cd:9d:f5:17
        Signature Algorithm: sha256WithRSAEncryption
        Issuer: C=US, ST=Texas, O=MirrorNG, CN=root
        Validity
            Not Before: Oct 29 00:48:19 2020 GMT
            Not After : Oct 29 00:48:19 2023 GMT
        Subject: C=US, ST=Texas, O=MirrorNG, CN=root
        Subject Public Key Info:
            Public Key Algorithm: rsaEncryption
                RSA Public-Key: (2048 bit)
                Modulus:
                    00:de:3c:d8:d6:cd:cf:1f:34:ba:81:ff:b5:9f:8f:
                    fa:b3:4f:f4:33:7c:63:e5:49:6a:9e:eb:86:b4:e5:
                    b5:d8:57:98:ae:19:5d:f5:62:a2:71:1a:c0:cb:6d:
                    77:27:a5:bc:e9:f7:2a:c6:63:fc:6b:fc:8d:e0:02:
                    61:ce:34:f3:ad:d8:b5:05:96:6c:88:d7:b3:ef:a7:
                    c7:22:e2:3f:8f:12:61:7f:fa:41:91:21:33:5b:72:
                    d4:00:e3:78:fd:7f:b7:ba:28:a3:46:0b:32:8c:96:
                    b4:7e:03:fa:06:04:b4:70:f2:36:51:e3:80:21:35:
                    83:4c:c8:2d:39:6a:63:aa:1c:06:16:a6:2a:bb:fa:
                    36:64:a9:8f:b7:72:8b:b2:3e:02:ec:9d:69:c7:0d:
                    be:53:34:54:c9:3a:88:c3:e6:2c:b9:f2:57:18:57:
                    0f:28:ef:47:65:21:1b:a5:94:03:dc:d1:6c:3c:5f:
                    0e:e3:74:a0:ad:62:70:76:35:7c:b2:1a:9a:25:e8:
                    c8:c3:7a:b9:ea:d3:c2:bf:08:cb:15:06:7c:ba:a6:
                    e0:76:cf:88:0d:17:d4:9e:73:20:03:01:37:89:7a:
                    16:1f:f9:78:32:26:0b:8d:da:7c:69:03:f8:58:2d:
                    40:35:43:ed:78:e0:76:b0:b6:29:47:19:62:13:7a:
                    55:8b
                Exponent: 65537 (0x10001)
        X509v3 extensions:
            X509v3 Subject Key Identifier: 
                36:AA:50:44:DD:1A:24:CE:B1:5F:41:38:A6:6B:1E:10:DE:2E:75:2B
            X509v3 Authority Key Identifier: 
                keyid:36:AA:50:44:DD:1A:24:CE:B1:5F:41:38:A6:6B:1E:10:DE:2E:75:2B

            X509v3 Basic Constraints: critical
                CA:TRUE
    Signature Algorithm: sha256WithRSAEncryption
         6c:bb:11:0d:9f:d2:cd:6d:c6:52:a1:46:b0:33:68:b9:75:bd:
         57:e9:ef:c2:a2:b0:22:06:b1:34:d4:0e:fc:71:b7:1b:e0:25:
         a8:20:50:a8:63:77:76:07:20:54:6a:c0:e5:95:06:14:0d:49:
         73:94:c5:e9:79:5f:c8:2d:2f:ba:3f:c9:b5:07:05:24:6a:c4:
         38:c6:d5:4b:4e:f1:4b:d1:55:45:0a:d7:19:fa:13:44:39:2a:
         4a:37:37:2a:ca:33:b4:85:12:68:0a:c0:a3:93:1e:48:1d:f0:
         46:a9:82:63:b0:c3:5f:27:57:7c:83:cd:47:0e:9a:5f:42:ff:
         a6:a9:3b:eb:8c:f9:1e:23:14:f4:f3:ec:3f:b2:ed:e6:f7:a7:
         66:54:9b:3f:b4:7b:ee:18:51:bf:b8:1c:bd:7c:4e:30:f8:03:
         3b:a9:f6:b2:69:77:c9:7f:90:32:47:19:06:42:99:33:99:3e:
         a2:4e:c6:7e:ec:aa:12:da:fe:c9:a3:c6:a3:3f:7b:38:a3:02:
         4e:2f:55:b6:af:96:81:05:4a:4f:59:3a:e2:13:0d:a4:94:1d:
         a5:5e:5c:69:3e:c8:47:dd:43:8c:12:c4:a3:7b:8b:f7:73:85:
         c2:7a:a7:8d:cc:72:06:3c:c2:7b:14:a2:60:62:de:02:98:4b:
         d8:b1:df:db
-----BEGIN CERTIFICATE-----
MIIDXzCCAkegAwIBAgIUTY9EPuN3Ctl1YJWrPK3nu82d9RcwDQYJKoZIhvcNAQEL
BQAwPzELMAkGA1UEBhMCVVMxDjAMBgNVBAgMBVRleGFzMREwDwYDVQQKDAhNaXJy
b3JORzENMAsGA1UEAwwEcm9vdDAeFw0yMDEwMjkwMDQ4MTlaFw0yMzEwMjkwMDQ4
MTlaMD8xCzAJBgNVBAYTAlVTMQ4wDAYDVQQIDAVUZXhhczERMA8GA1UECgwITWly
cm9yTkcxDTALBgNVBAMMBHJvb3QwggEiMA0GCSqGSIb3DQEBAQUAA4IBDwAwggEK
AoIBAQDePNjWzc8fNLqB/7Wfj/qzT/QzfGPlSWqe64a05bXYV5iuGV31YqJxGsDL
bXcnpbzp9yrGY/xr/I3gAmHONPOt2LUFlmyI17Pvp8ci4j+PEmF/+kGRITNbctQA
43j9f7e6KKNGCzKMlrR+A/oGBLRw8jZR44AhNYNMyC05amOqHAYWpiq7+jZkqY+3
couyPgLsnWnHDb5TNFTJOojD5iy58lcYVw8o70dlIRullAPc0Ww8Xw7jdKCtYnB2
NXyyGpol6MjDernq08K/CMsVBny6puB2z4gNF9SecyADATeJehYf+XgyJguN2nxp
A/hYLUA1Q+144HawtilHGWITelWLAgMBAAGjUzBRMB0GA1UdDgQWBBQ2qlBE3Rok
zrFfQTimax4Q3i51KzAfBgNVHSMEGDAWgBQ2qlBE3RokzrFfQTimax4Q3i51KzAP
BgNVHRMBAf8EBTADAQH/MA0GCSqGSIb3DQEBCwUAA4IBAQBsuxENn9LNbcZSoUaw
M2i5db1X6e/CorAiBrE01A78cbcb4CWoIFCoY3d2ByBUasDllQYUDUlzlMXpeV/I
LS+6P8m1BwUkasQ4xtVLTvFL0VVFCtcZ+hNEOSpKNzcqyjO0hRJoCsCjkx5IHfBG
qYJjsMNfJ1d8g81HDppfQv+mqTvrjPkeIxT08+w/su3m96dmVJs/tHvuGFG/uBy9
fE4w+AM7qfayaXfJf5AyRxkGQpkzmT6iTsZ+7KoS2v7Jo8ajP3s4owJOL1W2r5aB
BUpPWTriEw2klB2lXlxpPshH3UOMEsSje4v3c4XCeqeNzHIGPMJ7FKJgYt4CmEvY
sd/b
-----END CERTIFICATE-----
